target datalayout = "e-m:e-p270:32:32-p271:32:32-p272:64:64-i64:64-i128:128-f80:128-n8:16:32:64-S128"
target triple = "x86_64-pc-linux-gnu"

%"class.llvm::StringRef" = type { ptr, i64 }
%"struct.clang::format::JsModuleReference" = type <{ i8, i8, i8, i8, i32, %"class.llvm::StringRef", %"class.llvm::StringRef", %"class.llvm::StringRef", %"class.llvm::SmallVector", i8, [3 x i8], %"class.clang::SourceLocation", %"class.clang::SourceLocation", %"class.clang::SourceRange", [4 x i8] }>
%"class.llvm::SmallVector" = type { %"class.llvm::SmallVectorImpl", %"struct.llvm::SmallVectorStorage" }
%"class.llvm::SmallVectorImpl" = type { %"class.llvm::SmallVectorTemplateBase" }
%"class.llvm::SmallVectorTemplateBase" = type { %"class.llvm::SmallVectorTemplateCommon" }
%"class.llvm::SmallVectorTemplateCommon" = type { %"class.llvm::SmallVectorBase" }
%"class.llvm::SmallVectorBase" = type { ptr, i32, i32 }
%"struct.llvm::SmallVectorStorage" = type { [40 x i8] }
%"class.clang::SourceLocation" = type { i32 }
%"class.clang::SourceRange" = type { %"class.clang::SourceLocation", %"class.clang::SourceLocation" }

; Function Attrs: mustprogress nounwind uwtable
define linkonce_odr hidden noundef i32 @_ZN4llvm9StringRef13compareMemoryEPKcS2_m(ptr noundef %0, ptr noundef %1, i64 noundef %2) #0 comdat align 2 {
  %4 = alloca i32, align 4
  %5 = alloca ptr, align 8
  %6 = alloca ptr, align 8
  %7 = alloca i64, align 8
  store ptr %0, ptr %5, align 8
  store ptr %1, ptr %6, align 8
  store i64 %2, ptr %7, align 8
  %8 = load i64, ptr %7, align 8
  %9 = icmp eq i64 %8, 0
  br i1 %9, label %10, label %11

10:                                               ; preds = %3
  store i32 0, ptr %4, align 4
  br label %16

11:                                               ; preds = %3
  %12 = load ptr, ptr %5, align 8
  %13 = load ptr, ptr %6, align 8
  %14 = load i64, ptr %7, align 8
  %15 = call i32 @memcmp(ptr noundef %12, ptr noundef %13, i64 noundef %14) #13
  store i32 %15, ptr %4, align 4
  br label %16

16:                                               ; preds = %11, %10
  %17 = load i32, ptr %4, align 4
  ret i32 %17
}

; Function Attrs: mustprogress nounwind uwtable
define linkonce_odr noundef nonnull align 8 dereferenceable(8) ptr @_ZSt3minImERKT_S2_S2_(ptr noundef nonnull align 8 dereferenceable(8) %0, ptr noundef nonnull align 8 dereferenceable(8) %1) #0 comdat {
  %3 = alloca ptr, align 8
  %4 = alloca ptr, align 8
  %5 = alloca ptr, align 8
  store ptr %0, ptr %4, align 8
  store ptr %1, ptr %5, align 8
  %6 = load ptr, ptr %5, align 8
  %7 = load i64, ptr %6, align 8
  %8 = load ptr, ptr %4, align 8
  %9 = load i64, ptr %8, align 8
  %10 = icmp ult i64 %7, %9
  br i1 %10, label %11, label %13

11:                                               ; preds = %2
  %12 = load ptr, ptr %5, align 8
  store ptr %12, ptr %3, align 8
  br label %15

13:                                               ; preds = %2
  %14 = load ptr, ptr %4, align 8
  store ptr %14, ptr %3, align 8
  br label %15

15:                                               ; preds = %13, %11
  %16 = load ptr, ptr %3, align 8
  ret ptr %16
}

; Function Attrs: mustprogress nounwind uwtable
define linkonce_odr hidden noundef ptr @_ZNK4llvm9StringRef4dataEv(ptr noundef nonnull align 8 dereferenceable(16) %0) #0 comdat align 2 {
  %2 = alloca ptr, align 8
  store ptr %0, ptr %2, align 8
  %3 = load ptr, ptr %2, align 8
  %4 = getelementptr inbounds nuw %"class.llvm::StringRef", ptr %3, i32 0, i32 0
  %5 = load ptr, ptr %4, align 8
  ret ptr %5
}

; Function Attrs: mustprogress nounwind uwtable
define linkonce_odr hidden noundef i64 @_ZNK4llvm9StringRef4sizeEv(ptr noundef nonnull align 8 dereferenceable(16) %0) #0 comdat align 2 {
  %2 = alloca ptr, align 8
  store ptr %0, ptr %2, align 8
  %3 = load ptr, ptr %2, align 8
  %4 = getelementptr inbounds nuw %"class.llvm::StringRef", ptr %3, i32 0, i32 1
  %5 = load i64, ptr %4, align 8
  ret i64 %5
}

; Function Attrs: mustprogress nounwind uwtable
define linkonce_odr hidden noundef i32 @_ZNK4llvm9StringRef7compareES0_(ptr noundef nonnull align 8 dereferenceable(16) %0, ptr %1, i64 %2) #0 comdat align 2 {
  %4 = alloca i32, align 4
  %5 = alloca %"class.llvm::StringRef", align 8
  %6 = alloca ptr, align 8
  %7 = alloca i32, align 4
  %8 = getelementptr inbounds nuw { ptr, i64 }, ptr %5, i32 0, i32 0
  store ptr %1, ptr %8, align 8
  %9 = getelementptr inbounds nuw { ptr, i64 }, ptr %5, i32 0, i32 1
  store i64 %2, ptr %9, align 8
  store ptr %0, ptr %6, align 8
  %10 = load ptr, ptr %6, align 8
  %11 = getelementptr inbounds nuw %"class.llvm::StringRef", ptr %10, i32 0, i32 0
  %12 = load ptr, ptr %11, align 8
  %13 = getelementptr inbounds nuw %"class.llvm::StringRef", ptr %5, i32 0, i32 0
  %14 = load ptr, ptr %13, align 8
  %15 = getelementptr inbounds nuw %"class.llvm::StringRef", ptr %10, i32 0, i32 1
  %16 = getelementptr inbounds nuw %"class.llvm::StringRef", ptr %5, i32 0, i32 1
  %17 = call noundef nonnull align 8 dereferenceable(8) ptr @_ZSt3minImERKT_S2_S2_(ptr noundef nonnull align 8 dereferenceable(8) %15, ptr noundef nonnull align 8 dereferenceable(8) %16)
  %18 = load i64, ptr %17, align 8
  %19 = call noundef i32 @_ZN4llvm9StringRef13compareMemoryEPKcS2_m(ptr noundef %12, ptr noundef %14, i64 noundef %18)
  store i32 %19, ptr %7, align 4
  %20 = load i32, ptr %7, align 4
  %21 = icmp ne i32 %20, 0
  br i1 %21, label %22, label %26

22:                                               ; preds = %3
  %23 = load i32, ptr %7, align 4
  %24 = icmp slt i32 %23, 0
  %25 = select i1 %24, i32 -1, i32 1
  store i32 %25, ptr %4, align 4
  br label %40

26:                                               ; preds = %3
  %27 = getelementptr inbounds nuw %"class.llvm::StringRef", ptr %10, i32 0, i32 1
  %28 = load i64, ptr %27, align 8
  %29 = getelementptr inbounds nuw %"class.llvm::StringRef", ptr %5, i32 0, i32 1
  %30 = load i64, ptr %29, align 8
  %31 = icmp eq i64 %28, %30
  br i1 %31, label %32, label %33

32:                                               ; preds = %26
  store i32 0, ptr %4, align 4
  br label %40

33:                                               ; preds = %26
  %34 = getelementptr inbounds nuw %"class.llvm::StringRef", ptr %10, i32 0, i32 1
  %35 = load i64, ptr %34, align 8
  %36 = getelementptr inbounds nuw %"class.llvm::StringRef", ptr %5, i32 0, i32 1
  %37 = load i64, ptr %36, align 8
  %38 = icmp ult i64 %35, %37
  %39 = select i1 %38, i32 -1, i32 1
  store i32 %39, ptr %4, align 4
  br label %40

40:                                               ; preds = %33, %32, %22
  %41 = load i32, ptr %4, align 4
  ret i32 %41
}

; Function Attrs: mustprogress nounwind uwtable
define linkonce_odr hidden noundef zeroext i1 @_ZN4llvmeqENS_9StringRefES0_(ptr %0, i64 %1, ptr %2, i64 %3) #0 comdat {
  %5 = alloca i1, align 1
  %6 = alloca %"class.llvm::StringRef", align 8
  %7 = alloca %"class.llvm::StringRef", align 8
  %8 = getelementptr inbounds nuw { ptr, i64 }, ptr %6, i32 0, i32 0
  store ptr %0, ptr %8, align 8
  %9 = getelementptr inbounds nuw { ptr, i64 }, ptr %6, i32 0, i32 1
  store i64 %1, ptr %9, align 8
  %10 = getelementptr inbounds nuw { ptr, i64 }, ptr %7, i32 0, i32 0
  store ptr %2, ptr %10, align 8
  %11 = getelementptr inbounds nuw { ptr, i64 }, ptr %7, i32 0, i32 1
  store i64 %3, ptr %11, align 8
  %12 = call noundef i64 @_ZNK4llvm9StringRef4sizeEv(ptr noundef nonnull align 8 dereferenceable(16) %6)
  %13 = call noundef i64 @_ZNK4llvm9StringRef4sizeEv(ptr noundef nonnull align 8 dereferenceable(16) %7)
  %14 = icmp ne i64 %12, %13
  br i1 %14, label %15, label %16

15:                                               ; preds = %4
  store i1 false, ptr %5, align 1
  br label %25

16:                                               ; preds = %4
  %17 = call noundef zeroext i1 @_ZNK4llvm9StringRef5emptyEv(ptr noundef nonnull align 8 dereferenceable(16) %6)
  br i1 %17, label %18, label %19

18:                                               ; preds = %16
  store i1 true, ptr %5, align 1
  br label %25

19:                                               ; preds = %16
  %20 = call noundef ptr @_ZNK4llvm9StringRef4dataEv(ptr noundef nonnull align 8 dereferenceable(16) %6)
  %21 = call noundef ptr @_ZNK4llvm9StringRef4dataEv(ptr noundef nonnull align 8 dereferenceable(16) %7)
  %22 = call noundef i64 @_ZNK4llvm9StringRef4sizeEv(ptr noundef nonnull align 8 dereferenceable(16) %6)
  %23 = call i32 @memcmp(ptr noundef %20, ptr noundef %21, i64 noundef %22) #13
  %24 = icmp eq i32 %23, 0
  store i1 %24, ptr %5, align 1
  br label %25

25:                                               ; preds = %19, %18, %15
  %26 = load i1, ptr %5, align 1
  ret i1 %26
}

; Function Attrs: mustprogress nounwind uwtable
define linkonce_odr hidden noundef zeroext i1 @_ZN4llvmgtENS_9StringRefES0_(ptr %0, i64 %1, ptr %2, i64 %3) #0 comdat {
  %5 = alloca %"class.llvm::StringRef", align 8
  %6 = alloca %"class.llvm::StringRef", align 8
  %7 = alloca %"class.llvm::StringRef", align 8
  %8 = getelementptr inbounds nuw { ptr, i64 }, ptr %5, i32 0, i32 0
  store ptr %0, ptr %8, align 8
  %9 = getelementptr inbounds nuw { ptr, i64 }, ptr %5, i32 0, i32 1
  store i64 %1, ptr %9, align 8
  %10 = getelementptr inbounds nuw { ptr, i64 }, ptr %6, i32 0, i32 0
  store ptr %2, ptr %10, align 8
  %11 = getelementptr inbounds nuw { ptr, i64 }, ptr %6, i32 0, i32 1
  store i64 %3, ptr %11, align 8
  call void @llvm.memcpy.p0.p0.i64(ptr align 8 %7, ptr align 8 %6, i64 16, i1 false)
  %12 = getelementptr inbounds nuw { ptr, i64 }, ptr %7, i32 0, i32 0
  %13 = load ptr, ptr %12, align 8
  %14 = getelementptr inbounds nuw { ptr, i64 }, ptr %7, i32 0, i32 1
  %15 = load i64, ptr %14, align 8
  %16 = call noundef i32 @_ZNK4llvm9StringRef7compareES0_(ptr noundef nonnull align 8 dereferenceable(16) %5, ptr %13, i64 %15)
  %17 = icmp sgt i32 %16, 0
  ret i1 %17
}

; Function Attrs: mustprogress nounwind uwtable
define linkonce_odr hidden noundef zeroext i1 @_ZN4llvmneENS_9StringRefES0_(ptr %0, i64 %1, ptr %2, i64 %3) #0 comdat {
  %5 = alloca %"class.llvm::StringRef", align 8
  %6 = alloca %"class.llvm::StringRef", align 8
  %7 = alloca %"class.llvm::StringRef", align 8
  %8 = alloca %"class.llvm::StringRef", align 8
  %9 = getelementptr inbounds nuw { ptr, i64 }, ptr %5, i32 0, i32 0
  store ptr %0, ptr %9, align 8
  %10 = getelementptr inbounds nuw { ptr, i64 }, ptr %5, i32 0, i32 1
  store i64 %1, ptr %10, align 8
  %11 = getelementptr inbounds nuw { ptr, i64 }, ptr %6, i32 0, i32 0
  store ptr %2, ptr %11, align 8
  %12 = getelementptr inbounds nuw { ptr, i64 }, ptr %6, i32 0, i32 1
  store i64 %3, ptr %12, align 8
  call void @llvm.memcpy.p0.p0.i64(ptr align 8 %7, ptr align 8 %5, i64 16, i1 false)
  call void @llvm.memcpy.p0.p0.i64(ptr align 8 %8, ptr align 8 %6, i64 16, i1 false)
  %13 = getelementptr inbounds nuw { ptr, i64 }, ptr %7, i32 0, i32 0
  %14 = load ptr, ptr %13, align 8
  %15 = getelementptr inbounds nuw { ptr, i64 }, ptr %7, i32 0, i32 1
  %16 = load i64, ptr %15, align 8
  %17 = getelementptr inbounds nuw { ptr, i64 }, ptr %8, i32 0, i32 0
  %18 = load ptr, ptr %17, align 8
  %19 = getelementptr inbounds nuw { ptr, i64 }, ptr %8, i32 0, i32 1
  %20 = load i64, ptr %19, align 8
  %21 = call noundef zeroext i1 @_ZN4llvmeqENS_9StringRefES0_(ptr %14, i64 %16, ptr %18, i64 %20)
  %22 = xor i1 %21, true
  ret i1 %22
}

; Function Attrs: mustprogress nounwind uwtable
define linkonce_odr hidden noundef zeroext i1 @_ZNK4llvm9StringRef5emptyEv(ptr noundef nonnull align 8 dereferenceable(16) %0) #0 comdat align 2 {
  %2 = alloca ptr, align 8
  store ptr %0, ptr %2, align 8
  %3 = load ptr, ptr %2, align 8
  %4 = getelementptr inbounds nuw %"class.llvm::StringRef", ptr %3, i32 0, i32 1
  %5 = load i64, ptr %4, align 8
  %6 = icmp eq i64 %5, 0
  ret i1 %6
}

; Function Attrs: mustprogress nounwind uwtable
define dso_local noundef zeroext i1 @_ZN5clang6formatltERKNS0_17JsModuleReferenceES3_(ptr noundef nonnull align 8 dereferenceable(132) %0, ptr noundef nonnull align 8 dereferenceable(132) %1) #0 {
  %3 = alloca i1, align 1
  %4 = alloca ptr, align 8
  %5 = alloca ptr, align 8
  %6 = alloca i32, align 4
  %7 = alloca %"class.llvm::StringRef", align 8
  %8 = alloca %"class.llvm::StringRef", align 8
  %9 = alloca %"class.llvm::StringRef", align 8
  %10 = alloca %"class.llvm::StringRef", align 8
  %11 = alloca %"class.llvm::StringRef", align 8
  store ptr %0, ptr %4, align 8
  store ptr %1, ptr %5, align 8
  %12 = load ptr, ptr %4, align 8
  %13 = getelementptr inbounds nuw %"struct.clang::format::JsModuleReference", ptr %12, i32 0, i32 1
  %14 = load i8, ptr %13, align 1
  %15 = trunc i8 %14 to i1
  %16 = zext i1 %15 to i32
  %17 = load ptr, ptr %5, align 8
  %18 = getelementptr inbounds nuw %"struct.clang::format::JsModuleReference", ptr %17, i32 0, i32 1
  %19 = load i8, ptr %18, align 1
  %20 = trunc i8 %19 to i1
  %21 = zext i1 %20 to i32
  %22 = icmp ne i32 %16, %21
  br i1 %22, label %23, label %35

23:                                               ; preds = %2
  %24 = load ptr, ptr %4, align 8
  %25 = getelementptr inbounds nuw %"struct.clang::format::JsModuleReference", ptr %24, i32 0, i32 1
  %26 = load i8, ptr %25, align 1
  %27 = trunc i8 %26 to i1
  %28 = zext i1 %27 to i32
  %29 = load ptr, ptr %5, align 8
  %30 = getelementptr inbounds nuw %"struct.clang::format::JsModuleReference", ptr %29, i32 0, i32 1
  %31 = load i8, ptr %30, align 1
  %32 = trunc i8 %31 to i1
  %33 = zext i1 %32 to i32
  %34 = icmp slt i32 %28, %33
  store i1 %34, ptr %3, align 1
  br label %146

35:                                               ; preds = %2
  %36 = load ptr, ptr %4, align 8
  %37 = getelementptr inbounds nuw %"struct.clang::format::JsModuleReference", ptr %36, i32 0, i32 4
  %38 = load i32, ptr %37, align 4
  %39 = load ptr, ptr %5, align 8
  %40 = getelementptr inbounds nuw %"struct.clang::format::JsModuleReference", ptr %39, i32 0, i32 4
  %41 = load i32, ptr %40, align 4
  %42 = icmp ne i32 %38, %41
  br i1 %42, label %43, label %51

43:                                               ; preds = %35
  %44 = load ptr, ptr %4, align 8
  %45 = getelementptr inbounds nuw %"struct.clang::format::JsModuleReference", ptr %44, i32 0, i32 4
  %46 = load i32, ptr %45, align 4
  %47 = load ptr, ptr %5, align 8
  %48 = getelementptr inbounds nuw %"struct.clang::format::JsModuleReference", ptr %47, i32 0, i32 4
  %49 = load i32, ptr %48, align 4
  %50 = icmp slt i32 %46, %49
  store i1 %50, ptr %3, align 1
  br label %146

51:                                               ; preds = %35
  %52 = load ptr, ptr %4, align 8
  %53 = getelementptr inbounds nuw %"struct.clang::format::JsModuleReference", ptr %52, i32 0, i32 4
  %54 = load i32, ptr %53, align 4
  %55 = icmp eq i32 %54, 0
  br i1 %55, label %61, label %56

56:                                               ; preds = %51
  %57 = load ptr, ptr %4, align 8
  %58 = getelementptr inbounds nuw %"struct.clang::format::JsModuleReference", ptr %57, i32 0, i32 4
  %59 = load i32, ptr %58, align 4
  %60 = icmp eq i32 %59, 4
  br i1 %60, label %61, label %62

61:                                               ; preds = %56, %51
  store i1 false, ptr %3, align 1
  br label %146

62:                                               ; preds = %56
  %63 = load ptr, ptr %4, align 8
  %64 = getelementptr inbounds nuw %"struct.clang::format::JsModuleReference", ptr %63, i32 0, i32 5
  %65 = call noundef zeroext i1 @_ZNK4llvm9StringRef5emptyEv(ptr noundef nonnull align 8 dereferenceable(16) %64)
  %66 = zext i1 %65 to i32
  %67 = load ptr, ptr %5, align 8
  %68 = getelementptr inbounds nuw %"struct.clang::format::JsModuleReference", ptr %67, i32 0, i32 5
  %69 = call noundef zeroext i1 @_ZNK4llvm9StringRef5emptyEv(ptr noundef nonnull align 8 dereferenceable(16) %68)
  %70 = zext i1 %69 to i32
  %71 = icmp ne i32 %66, %70
  br i1 %71, label %72, label %82

72:                                               ; preds = %62
  %73 = load ptr, ptr %4, align 8
  %74 = getelementptr inbounds nuw %"struct.clang::format::JsModuleReference", ptr %73, i32 0, i32 5
  %75 = call noundef zeroext i1 @_ZNK4llvm9StringRef5emptyEv(ptr noundef nonnull align 8 dereferenceable(16) %74)
  %76 = zext i1 %75 to i32
  %77 = load ptr, ptr %5, align 8
  %78 = getelementptr inbounds nuw %"struct.clang::format::JsModuleReference", ptr %77, i32 0, i32 5
  %79 = call noundef zeroext i1 @_ZNK4llvm9StringRef5emptyEv(ptr noundef nonnull align 8 dereferenceable(16) %78)
  %80 = zext i1 %79 to i32
  %81 = icmp slt i32 %76, %80
  store i1 %81, ptr %3, align 1
  br label %146

82:                                               ; preds = %62
  %83 = load ptr, ptr %4, align 8
  %84 = getelementptr inbounds nuw %"struct.clang::format::JsModuleReference", ptr %83, i32 0, i32 5
  %85 = load ptr, ptr %5, align 8
  %86 = getelementptr inbounds nuw %"struct.clang::format::JsModuleReference", ptr %85, i32 0, i32 5
  call void @llvm.memcpy.p0.p0.i64(ptr align 8 %7, ptr align 8 %86, i64 16, i1 false)
  %87 = getelementptr inbounds nuw { ptr, i64 }, ptr %7, i32 0, i32 0
  %88 = load ptr, ptr %87, align 8
  %89 = getelementptr inbounds nuw { ptr, i64 }, ptr %7, i32 0, i32 1
  %90 = load i64, ptr %89, align 8
  %91 = call noundef i32 @_ZNK4llvm9StringRef19compare_insensitiveES0_(ptr noundef nonnull align 8 dereferenceable(16) %84, ptr %88, i64 %90)
  store i32 %91, ptr %6, align 4
  %92 = load i32, ptr %6, align 4
  %93 = icmp ne i32 %92, 0
  br i1 %93, label %94, label %97

94:                                               ; preds = %82
  %95 = load i32, ptr %6, align 4
  %96 = icmp slt i32 %95, 0
  store i1 %96, ptr %3, align 1
  br label %146

97:                                               ; preds = %82
  %98 = load ptr, ptr %4, align 8
  %99 = getelementptr inbounds nuw %"struct.clang::format::JsModuleReference", ptr %98, i32 0, i32 6
  %100 = call noundef zeroext i1 @_ZNK4llvm9StringRef5emptyEv(ptr noundef nonnull align 8 dereferenceable(16) %99)
  %101 = zext i1 %100 to i32
  %102 = load ptr, ptr %5, align 8
  %103 = getelementptr inbounds nuw %"struct.clang::format::JsModuleReference", ptr %102, i32 0, i32 6
  %104 = call noundef zeroext i1 @_ZNK4llvm9StringRef5emptyEv(ptr noundef nonnull align 8 dereferenceable(16) %103)
  %105 = zext i1 %104 to i32
  %106 = icmp ne i32 %101, %105
  br i1 %106, label %107, label %117

107:                                              ; preds = %97
  %108 = load ptr, ptr %4, align 8
  %109 = getelementptr inbounds nuw %"struct.clang::format::JsModuleReference", ptr %108, i32 0, i32 6
  %110 = call noundef zeroext i1 @_ZNK4llvm9StringRef5emptyEv(ptr noundef nonnull align 8 dereferenceable(16) %109)
  %111 = zext i1 %110 to i32
  %112 = load ptr, ptr %5, align 8
  %113 = getelementptr inbounds nuw %"struct.clang::format::JsModuleReference", ptr %112, i32 0, i32 6
  %114 = call noundef zeroext i1 @_ZNK4llvm9StringRef5emptyEv(ptr noundef nonnull align 8 dereferenceable(16) %113)
  %115 = zext i1 %114 to i32
  %116 = icmp slt i32 %111, %115
  store i1 %116, ptr %3, align 1
  br label %146

117:                                              ; preds = %97
  %118 = load ptr, ptr %4, align 8
  %119 = getelementptr inbounds nuw %"struct.clang::format::JsModuleReference", ptr %118, i32 0, i32 6
  call void @llvm.memcpy.p0.p0.i64(ptr align 8 %8, ptr align 8 %119, i64 16, i1 false)
  %120 = load ptr, ptr %5, align 8
  %121 = getelementptr inbounds nuw %"struct.clang::format::JsModuleReference", ptr %120, i32 0, i32 6
  call void @llvm.memcpy.p0.p0.i64(ptr align 8 %9, ptr align 8 %121, i64 16, i1 false)
  %122 = getelementptr inbounds nuw { ptr, i64 }, ptr %8, i32 0, i32 0
  %123 = load ptr, ptr %122, align 8
  %124 = getelementptr inbounds nuw { ptr, i64 }, ptr %8, i32 0, i32 1
  %125 = load i64, ptr %124, align 8
  %126 = getelementptr inbounds nuw { ptr, i64 }, ptr %9, i32 0, i32 0
  %127 = load ptr, ptr %126, align 8
  %128 = getelementptr inbounds nuw { ptr, i64 }, ptr %9, i32 0, i32 1
  %129 = load i64, ptr %128, align 8
  %130 = call noundef zeroext i1 @_ZN4llvmneENS_9StringRefES0_(ptr %123, i64 %125, ptr %127, i64 %129)
  br i1 %130, label %131, label %145

131:                                              ; preds = %117
  %132 = load ptr, ptr %4, align 8
  %133 = getelementptr inbounds nuw %"struct.clang::format::JsModuleReference", ptr %132, i32 0, i32 6
  call void @llvm.memcpy.p0.p0.i64(ptr align 8 %10, ptr align 8 %133, i64 16, i1 false)
  %134 = load ptr, ptr %5, align 8
  %135 = getelementptr inbounds nuw %"struct.clang::format::JsModuleReference", ptr %134, i32 0, i32 6
  call void @llvm.memcpy.p0.p0.i64(ptr align 8 %11, ptr align 8 %135, i64 16, i1 false)
  %136 = getelementptr inbounds nuw { ptr, i64 }, ptr %10, i32 0, i32 0
  %137 = load ptr, ptr %136, align 8
  %138 = getelementptr inbounds nuw { ptr, i64 }, ptr %10, i32 0, i32 1
  %139 = load i64, ptr %138, align 8
  %140 = getelementptr inbounds nuw { ptr, i64 }, ptr %11, i32 0, i32 0
  %141 = load ptr, ptr %140, align 8
  %142 = getelementptr inbounds nuw { ptr, i64 }, ptr %11, i32 0, i32 1
  %143 = load i64, ptr %142, align 8
  %144 = call noundef zeroext i1 @_ZN4llvmgtENS_9StringRefES0_(ptr %137, i64 %139, ptr %141, i64 %143)
  store i1 %144, ptr %3, align 1
  br label %146

145:                                              ; preds = %117
  store i1 false, ptr %3, align 1
  br label %146

146:                                              ; preds = %145, %131, %107, %94, %72, %61, %43, %23
  %147 = load i1, ptr %3, align 1
  ret i1 %147
}