; Function Attrs: mustprogress nounwind uwtable
define dso_local noundef zeroext i1 @_ZN5clang6formatltERKNS0_17JsModuleReferenceES3_(ptr noundef nonnull align 8 dereferenceable(132) %0, ptr nocapture noundef nonnull readonly align 8 dereferenceable(132) %1) local_unnamed_addr #0 {
  %3 = getelementptr inbounds nuw i8, ptr %0, i64 1
  %4 = load i8, ptr %3, align 1
  %5 = and i8 %4, 1
  %6 = getelementptr inbounds nuw i8, ptr %1, i64 1
  %7 = load i8, ptr %6, align 1
  %8 = and i8 %7, 1
  %.not = icmp eq i8 %5, %8
  br i1 %.not, label %11, label %9

9:                                                ; preds = %2
  %10 = icmp ult i8 %5, %8
  br label %_ZN4llvmgtENS_9StringRefES0_.exit

11:                                               ; preds = %2
  %12 = getelementptr inbounds nuw i8, ptr %0, i64 4
  %13 = load i32, ptr %12, align 4
  %14 = getelementptr inbounds nuw i8, ptr %1, i64 4
  %15 = load i32, ptr %14, align 4
  %.not39 = icmp eq i32 %13, %15
  br i1 %.not39, label %18, label %16

16:                                               ; preds = %11
  %17 = icmp slt i32 %13, %15
  br label %_ZN4llvmgtENS_9StringRefES0_.exit

18:                                               ; preds = %11
  switch i32 %13, label %19 [
    i32 0, label %_ZN4llvmgtENS_9StringRefES0_.exit
    i32 4, label %_ZN4llvmgtENS_9StringRefES0_.exit
  ]

19:                                               ; preds = %18
  %20 = getelementptr inbounds i8, ptr %0, i64 16
  %21 = load i64, ptr %20, align 8
  %22 = icmp eq i64 %21, 0
  %23 = getelementptr inbounds i8, ptr %1, i64 16
  %24 = load i64, ptr %23, align 8
  %25 = icmp eq i64 %24, 0
  %26 = xor i1 %22, %25
  br i1 %26, label %27, label %30

27:                                               ; preds = %19
  %28 = xor i1 %22, true
  %29 = and i1 %25, %28
  br label %_ZN4llvmgtENS_9StringRefES0_.exit

30:                                               ; preds = %19
  %31 = getelementptr inbounds nuw i8, ptr %1, i64 8
  %32 = getelementptr inbounds nuw i8, ptr %0, i64 8
  %.sroa.07.0.copyload = load ptr, ptr %31, align 8
  %33 = tail call noundef i32 @_ZNK4llvm9StringRef19compare_insensitiveES0_(ptr noundef nonnull align 8 dereferenceable(16) %32, ptr %.sroa.07.0.copyload, i64 %24) #14
  %.not41 = icmp eq i32 %33, 0
  br i1 %.not41, label %36, label %34

34:                                               ; preds = %30
  %35 = icmp slt i32 %33, 0
  br label %_ZN4llvmgtENS_9StringRefES0_.exit

36:                                               ; preds = %30
  %37 = getelementptr inbounds i8, ptr %0, i64 32
  %38 = load i64, ptr %37, align 8
  %39 = icmp eq i64 %38, 0
  %40 = getelementptr inbounds i8, ptr %1, i64 32
  %41 = load i64, ptr %40, align 8
  %42 = icmp eq i64 %41, 0
  %43 = xor i1 %39, %42
  br i1 %43, label %44, label %47

44:                                               ; preds = %36
  %45 = xor i1 %39, true
  %46 = and i1 %42, %45
  br label %_ZN4llvmgtENS_9StringRefES0_.exit

47:                                               ; preds = %36
  %48 = getelementptr inbounds nuw i8, ptr %1, i64 24
  %49 = getelementptr inbounds nuw i8, ptr %0, i64 24
  %.sroa.05.0.copyload = load ptr, ptr %49, align 8
  %.sroa.03.0.copyload = load ptr, ptr %48, align 8
  %.not.i.i = icmp eq i64 %38, %41
  br i1 %.not.i.i, label %50, label %_ZN4llvmneENS_9StringRefES0_.exit.thread

50:                                               ; preds = %47
  br i1 %39, label %_ZN4llvmgtENS_9StringRefES0_.exit, label %_ZN4llvmneENS_9StringRefES0_.exit

_ZN4llvmneENS_9StringRefES0_.exit:                ; preds = %50
  %bcmp.i.i = tail call i32 @bcmp(ptr %.sroa.05.0.copyload, ptr %.sroa.03.0.copyload, i64 %38)
  %.not48 = icmp eq i32 %bcmp.i.i, 0
  br i1 %.not48, label %_ZN4llvmgtENS_9StringRefES0_.exit, label %_ZN4llvmneENS_9StringRefES0_.exit.thread

_ZN4llvmneENS_9StringRefES0_.exit.thread:         ; preds = %47, %_ZN4llvmneENS_9StringRefES0_.exit
  %.sroa.speculated.i.i = tail call i64 @llvm.umin.i64(i64 %41, i64 %38)
  %51 = icmp eq i64 %.sroa.speculated.i.i, 0
  br i1 %51, label %_ZN4llvm9StringRef13compareMemoryEPKcS2_m.exit.thread.i.i, label %_ZN4llvm9StringRef13compareMemoryEPKcS2_m.exit.i.i

_ZN4llvm9StringRef13compareMemoryEPKcS2_m.exit.i.i: ; preds = %_ZN4llvmneENS_9StringRefES0_.exit.thread
  %52 = tail call i32 @memcmp(ptr noundef %.sroa.05.0.copyload, ptr noundef %.sroa.03.0.copyload, i64 noundef %.sroa.speculated.i.i) #15
  %.not.i.i43 = icmp eq i32 %52, 0
  br i1 %.not.i.i43, label %_ZN4llvm9StringRef13compareMemoryEPKcS2_m.exit.thread.i.i, label %53

53:                                               ; preds = %_ZN4llvm9StringRef13compareMemoryEPKcS2_m.exit.i.i
  %.inv.i.i = icmp sgt i32 %52, -1
  br label %_ZN4llvmgtENS_9StringRefES0_.exit

_ZN4llvm9StringRef13compareMemoryEPKcS2_m.exit.thread.i.i: ; preds = %_ZN4llvm9StringRef13compareMemoryEPKcS2_m.exit.i.i, %_ZN4llvmneENS_9StringRefES0_.exit.thread
  %spec.select.i = icmp ugt i64 %38, %41
  br label %_ZN4llvmgtENS_9StringRefES0_.exit

_ZN4llvmgtENS_9StringRefES0_.exit:                ; preds = %50, %_ZN4llvm9StringRef13compareMemoryEPKcS2_m.exit.thread.i.i, %53, %_ZN4llvmneENS_9StringRefES0_.exit, %18, %18, %44, %34, %27, %16, %9
  %.0 = phi i1 [ %10, %9 ], [ %17, %16 ], [ %29, %27 ], [ %35, %34 ], [ %46, %44 ], [ false, %18 ], [ false, %18 ], [ false, %_ZN4llvmneENS_9StringRefES0_.exit ], [ %.inv.i.i, %53 ], [ %spec.select.i, %_ZN4llvm9StringRef13compareMemoryEPKcS2_m.exit.thread.i.i ], [ false, %50 ]
  ret i1 %.0
}